target datalayout = "e-m:e-p270:32:32-p271:32:32-p272:64:64-i64:64-i128:128-f80:128-n8:16:32:64-S128"
target triple = "x86_64-pc-linux-gnu"

@HMAC.static_md = internal global [64 x i8] zeroinitializer, align 16
@.str.1 = private unnamed_addr constant [5 x i8] c"HMAC\00", align 1

; Function Attrs: nounwind uwtable
define ptr @HMAC(ptr noundef %0, ptr noundef %1, i32 noundef %2, ptr noundef %3, i64 noundef %4, ptr noundef %5, ptr noundef %6) #0 {
  %8 = alloca ptr, align 8
  %9 = alloca ptr, align 8
  %10 = alloca i32, align 4
  %11 = alloca ptr, align 8
  %12 = alloca i64, align 8
  %13 = alloca ptr, align 8
  %14 = alloca ptr, align 8
  %15 = alloca i32, align 4
  %16 = alloca i64, align 8
  %17 = alloca ptr, align 8
  store ptr %0, ptr %8, align 8, !tbaa !11
  store ptr %1, ptr %9, align 8, !tbaa !8
  store i32 %2, ptr %10, align 4, !tbaa !9
  store ptr %3, ptr %11, align 8, !tbaa !25
  store i64 %4, ptr %12, align 8, !tbaa !27
  store ptr %5, ptr %13, align 8, !tbaa !25
  store ptr %6, ptr %14, align 8, !tbaa !29
  call void @llvm.lifetime.start.p0(i64 4, ptr %15) #6
  %18 = load ptr, ptr %8, align 8, !tbaa !11
  %19 = call i32 @EVP_MD_get_size(ptr noundef %18)
  store i32 %19, ptr %15, align 4, !tbaa !9
  call void @llvm.lifetime.start.p0(i64 8, ptr %16) #6
  store i64 0, ptr %16, align 8, !tbaa !27
  call void @llvm.lifetime.start.p0(i64 8, ptr %17) #6
  store ptr null, ptr %17, align 8, !tbaa !25
  %20 = load i32, ptr %15, align 4, !tbaa !9
  %21 = icmp sgt i32 %20, 0
  br i1 %21, label %22, label %47

22:                                               ; preds = %7
  %23 = load ptr, ptr %8, align 8, !tbaa !11
  %24 = call ptr @EVP_MD_get0_name(ptr noundef %23)
  %25 = load ptr, ptr %9, align 8, !tbaa !8
  %26 = load i32, ptr %10, align 4, !tbaa !9
  %27 = sext i32 %26 to i64
  %28 = load ptr, ptr %11, align 8, !tbaa !25
  %29 = load i64, ptr %12, align 8, !tbaa !27
  %30 = load ptr, ptr %13, align 8, !tbaa !25
  %31 = icmp eq ptr %30, null
  br i1 %31, label %32, label %33

32:                                               ; preds = %22
  br label %35

33:                                               ; preds = %22
  %34 = load ptr, ptr %13, align 8, !tbaa !25
  br label %35

35:                                               ; preds = %33, %32
  %36 = phi ptr [ @HMAC.static_md, %32 ], [ %34, %33 ]
  %37 = load i32, ptr %15, align 4, !tbaa !9
  %38 = sext i32 %37 to i64
  %39 = call ptr @EVP_Q_mac(ptr noundef null, ptr noundef @.str.1, ptr noundef null, ptr noundef %24, ptr noundef null, ptr noundef %25, i64 noundef %27, ptr noundef %28, i64 noundef %29, ptr noundef %36, i64 noundef %38, ptr noundef %16)
  store ptr %39, ptr %17, align 8, !tbaa !25
  %40 = load ptr, ptr %14, align 8, !tbaa !29
  %41 = icmp ne ptr %40, null
  br i1 %41, label %42, label %46

42:                                               ; preds = %35
  %43 = load i64, ptr %16, align 8, !tbaa !27
  %44 = trunc i64 %43 to i32
  %45 = load ptr, ptr %14, align 8, !tbaa !29
  store i32 %44, ptr %45, align 4, !tbaa !9
  br label %46

46:                                               ; preds = %42, %35
  br label %47

47:                                               ; preds = %46, %7
  %48 = load ptr, ptr %17, align 8, !tbaa !25
  call void @llvm.lifetime.end.p0(i64 8, ptr %17) #6
  call void @llvm.lifetime.end.p0(i64 8, ptr %16) #6
  call void @llvm.lifetime.end.p0(i64 4, ptr %15) #6
  ret ptr %48
}