; Function Attrs: nounwind uwtable
define ptr @HMAC(ptr noundef %0, ptr noundef %1, i32 noundef %2, ptr noundef %3, i64 noundef %4, ptr noundef %5, ptr noundef writeonly captures(address_is_null) %6) local_unnamed_addr #0 {
  %8 = alloca i64, align 8
  %9 = tail call i32 @EVP_MD_get_size(ptr noundef %0) #7
  call void @llvm.lifetime.start.p0(i64 8, ptr nonnull %8) #7
  store i64 0, ptr %8, align 8, !tbaa !20
  %10 = icmp sgt i32 %9, 0
  br i1 %10, label %11, label %21

11:                                               ; preds = %7
  %12 = tail call ptr @EVP_MD_get0_name(ptr noundef %0) #7
  %13 = sext i32 %2 to i64
  %14 = icmp eq ptr %5, null
  %15 = select i1 %14, ptr @HMAC.static_md, ptr %5
  %16 = zext nneg i32 %9 to i64
  %17 = call ptr @EVP_Q_mac(ptr noundef null, ptr noundef nonnull @.str.1, ptr noundef null, ptr noundef %12, ptr noundef null, ptr noundef %1, i64 noundef %13, ptr noundef %3, i64 noundef %4, ptr noundef nonnull %15, i64 noundef %16, ptr noundef nonnull %8) #7
  %.not = icmp eq ptr %6, null
  br i1 %.not, label %21, label %18

18:                                               ; preds = %11
  %19 = load i64, ptr %8, align 8, !tbaa !20
  %20 = trunc i64 %19 to i32
  store i32 %20, ptr %6, align 4, !tbaa !12
  br label %21

21:                                               ; preds = %11, %18, %7
  %.0 = phi ptr [ %17, %18 ], [ %17, %11 ], [ null, %7 ]
  call void @llvm.lifetime.end.p0(i64 8, ptr nonnull %8) #7
  ret ptr %.0
}